target datalayout = "e-m:e-p270:32:32-p271:32:32-p272:64:64-i64:64-i128:128-f80:128-n8:16:32:64-S128"
target triple = "x86_64-pc-linux-gnu"

%struct.stbtt__buf = type { ptr, i32, i32 }

; Function Attrs: nounwind uwtable
define void @stbtt__buf_skip(ptr noundef %0, i32 noundef %1) #0 {
  %3 = alloca ptr, align 8
  %4 = alloca i32, align 4
  store ptr %0, ptr %3, align 8, !tbaa !3
  store i32 %1, ptr %4, align 4, !tbaa !14
  %5 = load ptr, ptr %3, align 8, !tbaa !3
  %6 = load ptr, ptr %3, align 8, !tbaa !3
  %7 = getelementptr inbounds nuw %struct.stbtt__buf, ptr %6, i32 0, i32 1
  %8 = load i32, ptr %7, align 8, !tbaa !7
  %9 = load i32, ptr %4, align 4, !tbaa !14
  %10 = add nsw i32 %8, %9
  call void @stbtt__buf_seek(ptr noundef %5, i32 noundef %10)
  ret void
}

; Function Attrs: nounwind uwtable
define zeroext i8 @stbtt__buf_get8(ptr noundef %0) #0 {
  %2 = alloca i8, align 1
  %3 = alloca ptr, align 8
  store ptr %0, ptr %3, align 8, !tbaa !3
  %4 = load ptr, ptr %3, align 8, !tbaa !3
  %5 = getelementptr inbounds nuw %struct.stbtt__buf, ptr %4, i32 0, i32 1
  %6 = load i32, ptr %5, align 8, !tbaa !7
  %7 = load ptr, ptr %3, align 8, !tbaa !3
  %8 = getelementptr inbounds nuw %struct.stbtt__buf, ptr %7, i32 0, i32 2
  %9 = load i32, ptr %8, align 4, !tbaa !11
  %10 = icmp sge i32 %6, %9
  br i1 %10, label %11, label %12

11:                                               ; preds = %1
  store i8 0, ptr %2, align 1
  br label %23

12:                                               ; preds = %1
  %13 = load ptr, ptr %3, align 8, !tbaa !3
  %14 = getelementptr inbounds nuw %struct.stbtt__buf, ptr %13, i32 0, i32 0
  %15 = load ptr, ptr %14, align 8, !tbaa !12
  %16 = load ptr, ptr %3, align 8, !tbaa !3
  %17 = getelementptr inbounds nuw %struct.stbtt__buf, ptr %16, i32 0, i32 1
  %18 = load i32, ptr %17, align 8, !tbaa !7
  %19 = add nsw i32 %18, 1
  store i32 %19, ptr %17, align 8, !tbaa !7
  %20 = sext i32 %18 to i64
  %21 = getelementptr inbounds i8, ptr %15, i64 %20
  %22 = load i8, ptr %21, align 1, !tbaa !13
  store i8 %22, ptr %2, align 1
  br label %23

23:                                               ; preds = %12, %11
  %24 = load i8, ptr %2, align 1
  ret i8 %24
}

; Function Attrs: nounwind uwtable
define i32 @stbtt__buf_get(ptr noundef %0, i32 noundef %1) #0 {
  %3 = alloca ptr, align 8
  %4 = alloca i32, align 4
  %5 = alloca i32, align 4
  %6 = alloca i32, align 4
  store ptr %0, ptr %3, align 8, !tbaa !3
  store i32 %1, ptr %4, align 4, !tbaa !14
  call void @llvm.lifetime.start.p0(i64 4, ptr %5) #8
  store i32 0, ptr %5, align 4, !tbaa !14
  call void @llvm.lifetime.start.p0(i64 4, ptr %6) #8
  store i32 0, ptr %6, align 4, !tbaa !14
  br label %7

7:                                                ; preds = %18, %2
  %8 = load i32, ptr %6, align 4, !tbaa !14
  %9 = load i32, ptr %4, align 4, !tbaa !14
  %10 = icmp slt i32 %8, %9
  br i1 %10, label %11, label %21

11:                                               ; preds = %7
  %12 = load i32, ptr %5, align 4, !tbaa !14
  %13 = shl i32 %12, 8
  %14 = load ptr, ptr %3, align 8, !tbaa !3
  %15 = call zeroext i8 @stbtt__buf_get8(ptr noundef %14)
  %16 = zext i8 %15 to i32
  %17 = or i32 %13, %16
  store i32 %17, ptr %5, align 4, !tbaa !14
  br label %18

18:                                               ; preds = %11
  %19 = load i32, ptr %6, align 4, !tbaa !14
  %20 = add nsw i32 %19, 1
  store i32 %20, ptr %6, align 4, !tbaa !14
  br label %7, !llvm.loop !15

21:                                               ; preds = %7
  %22 = load i32, ptr %5, align 4, !tbaa !14
  call void @llvm.lifetime.end.p0(i64 4, ptr %6) #8
  call void @llvm.lifetime.end.p0(i64 4, ptr %5) #8
  ret i32 %22
}

; Function Attrs: nounwind uwtable
define { ptr, i64 } @stbtt__cff_get_index(ptr noundef %0) #0 {
  %2 = alloca %struct.stbtt__buf, align 8
  %3 = alloca ptr, align 8
  %4 = alloca i32, align 4
  %5 = alloca i32, align 4
  %6 = alloca i32, align 4
  store ptr %0, ptr %3, align 8, !tbaa !3
  call void @llvm.lifetime.start.p0(i64 4, ptr %4) #8
  call void @llvm.lifetime.start.p0(i64 4, ptr %5) #8
  call void @llvm.lifetime.start.p0(i64 4, ptr %6) #8
  %7 = load ptr, ptr %3, align 8, !tbaa !3
  %8 = getelementptr inbounds nuw %struct.stbtt__buf, ptr %7, i32 0, i32 1
  %9 = load i32, ptr %8, align 8, !tbaa !7
  store i32 %9, ptr %5, align 4, !tbaa !14
  %10 = load ptr, ptr %3, align 8, !tbaa !3
  %11 = call i32 @stbtt__buf_get(ptr noundef %10, i32 noundef 2)
  store i32 %11, ptr %4, align 4, !tbaa !14
  %12 = load i32, ptr %4, align 4, !tbaa !14
  %13 = icmp ne i32 %12, 0
  br i1 %13, label %14, label %27

14:                                               ; preds = %1
  %15 = load ptr, ptr %3, align 8, !tbaa !3
  %16 = call zeroext i8 @stbtt__buf_get8(ptr noundef %15)
  %17 = zext i8 %16 to i32
  store i32 %17, ptr %6, align 4, !tbaa !14
  %18 = load ptr, ptr %3, align 8, !tbaa !3
  %19 = load i32, ptr %6, align 4, !tbaa !14
  %20 = load i32, ptr %4, align 4, !tbaa !14
  %21 = mul nsw i32 %19, %20
  call void @stbtt__buf_skip(ptr noundef %18, i32 noundef %21)
  %22 = load ptr, ptr %3, align 8, !tbaa !3
  %23 = load ptr, ptr %3, align 8, !tbaa !3
  %24 = load i32, ptr %6, align 4, !tbaa !14
  %25 = call i32 @stbtt__buf_get(ptr noundef %23, i32 noundef %24)
  %26 = sub i32 %25, 1
  call void @stbtt__buf_skip(ptr noundef %22, i32 noundef %26)
  br label %27

27:                                               ; preds = %14, %1
  %28 = load ptr, ptr %3, align 8, !tbaa !3
  %29 = load i32, ptr %5, align 4, !tbaa !14
  %30 = load ptr, ptr %3, align 8, !tbaa !3
  %31 = getelementptr inbounds nuw %struct.stbtt__buf, ptr %30, i32 0, i32 1
  %32 = load i32, ptr %31, align 8, !tbaa !7
  %33 = load i32, ptr %5, align 4, !tbaa !14
  %34 = sub nsw i32 %32, %33
  %35 = call { ptr, i64 } @stbtt__buf_range(ptr noundef %28, i32 noundef %29, i32 noundef %34)
  %36 = getelementptr inbounds nuw { ptr, i64 }, ptr %2, i32 0, i32 0
  %37 = extractvalue { ptr, i64 } %35, 0
  store ptr %37, ptr %36, align 8
  %38 = getelementptr inbounds nuw { ptr, i64 }, ptr %2, i32 0, i32 1
  %39 = extractvalue { ptr, i64 } %35, 1
  store i64 %39, ptr %38, align 8
  call void @llvm.lifetime.end.p0(i64 4, ptr %6) #8
  call void @llvm.lifetime.end.p0(i64 4, ptr %5) #8
  call void @llvm.lifetime.end.p0(i64 4, ptr %4) #8
  %40 = load { ptr, i64 }, ptr %2, align 8
  ret { ptr, i64 } %40
}

; Function Attrs: nounwind uwtable
define void @stbtt__buf_seek(ptr noundef %0, i32 noundef %1) #0 {
  %3 = alloca ptr, align 8
  %4 = alloca i32, align 4
  store ptr %0, ptr %3, align 8, !tbaa !3
  store i32 %1, ptr %4, align 4, !tbaa !14
  %5 = load i32, ptr %4, align 4, !tbaa !14
  %6 = load ptr, ptr %3, align 8, !tbaa !3
  %7 = getelementptr inbounds nuw %struct.stbtt__buf, ptr %6, i32 0, i32 2
  %8 = load i32, ptr %7, align 4, !tbaa !11
  %9 = icmp sgt i32 %5, %8
  br i1 %9, label %13, label %10

10:                                               ; preds = %2
  %11 = load i32, ptr %4, align 4, !tbaa !14
  %12 = icmp slt i32 %11, 0
  br i1 %12, label %13, label %17

13:                                               ; preds = %10, %2
  %14 = load ptr, ptr %3, align 8, !tbaa !3
  %15 = getelementptr inbounds nuw %struct.stbtt__buf, ptr %14, i32 0, i32 2
  %16 = load i32, ptr %15, align 4, !tbaa !11
  br label %19

17:                                               ; preds = %10
  %18 = load i32, ptr %4, align 4, !tbaa !14
  br label %19

19:                                               ; preds = %17, %13
  %20 = phi i32 [ %16, %13 ], [ %18, %17 ]
  %21 = load ptr, ptr %3, align 8, !tbaa !3
  %22 = getelementptr inbounds nuw %struct.stbtt__buf, ptr %21, i32 0, i32 1
  store i32 %20, ptr %22, align 8, !tbaa !7
  ret void
}

; Function Attrs: nounwind uwtable
define { ptr, i64 } @stbtt__buf_range(ptr noundef %0, i32 noundef %1, i32 noundef %2) #0 {
  %4 = alloca %struct.stbtt__buf, align 8
  %5 = alloca ptr, align 8
  %6 = alloca i32, align 4
  %7 = alloca i32, align 4
  store ptr %0, ptr %5, align 8, !tbaa !3
  store i32 %1, ptr %6, align 4, !tbaa !14
  store i32 %2, ptr %7, align 4, !tbaa !14
  %8 = call { ptr, i64 } @stbtt__new_buf(ptr noundef null, i64 noundef 0)
  %9 = getelementptr inbounds nuw { ptr, i64 }, ptr %4, i32 0, i32 0
  %10 = extractvalue { ptr, i64 } %8, 0
  store ptr %10, ptr %9, align 8
  %11 = getelementptr inbounds nuw { ptr, i64 }, ptr %4, i32 0, i32 1
  %12 = extractvalue { ptr, i64 } %8, 1
  store i64 %12, ptr %11, align 8
  %13 = load i32, ptr %6, align 4, !tbaa !14
  %14 = icmp slt i32 %13, 0
  br i1 %14, label %32, label %15

15:                                               ; preds = %3
  %16 = load i32, ptr %7, align 4, !tbaa !14
  %17 = icmp slt i32 %16, 0
  br i1 %17, label %32, label %18

18:                                               ; preds = %15
  %19 = load i32, ptr %6, align 4, !tbaa !14
  %20 = load ptr, ptr %5, align 8, !tbaa !3
  %21 = getelementptr inbounds nuw %struct.stbtt__buf, ptr %20, i32 0, i32 2
  %22 = load i32, ptr %21, align 4, !tbaa !11
  %23 = icmp sgt i32 %19, %22
  br i1 %23, label %32, label %24

24:                                               ; preds = %18
  %25 = load i32, ptr %7, align 4, !tbaa !14
  %26 = load ptr, ptr %5, align 8, !tbaa !3
  %27 = getelementptr inbounds nuw %struct.stbtt__buf, ptr %26, i32 0, i32 2
  %28 = load i32, ptr %27, align 4, !tbaa !11
  %29 = load i32, ptr %6, align 4, !tbaa !14
  %30 = sub nsw i32 %28, %29
  %31 = icmp sgt i32 %25, %30
  br i1 %31, label %32, label %33

32:                                               ; preds = %24, %18, %15, %3
  br label %43

33:                                               ; preds = %24
  %34 = load ptr, ptr %5, align 8, !tbaa !3
  %35 = getelementptr inbounds nuw %struct.stbtt__buf, ptr %34, i32 0, i32 0
  %36 = load ptr, ptr %35, align 8, !tbaa !12
  %37 = load i32, ptr %6, align 4, !tbaa !14
  %38 = sext i32 %37 to i64
  %39 = getelementptr inbounds i8, ptr %36, i64 %38
  %40 = getelementptr inbounds nuw %struct.stbtt__buf, ptr %4, i32 0, i32 0
  store ptr %39, ptr %40, align 8, !tbaa !12
  %41 = load i32, ptr %7, align 4, !tbaa !14
  %42 = getelementptr inbounds nuw %struct.stbtt__buf, ptr %4, i32 0, i32 2
  store i32 %41, ptr %42, align 4, !tbaa !11
  br label %43

43:                                               ; preds = %33, %32
  %44 = load { ptr, i64 }, ptr %4, align 8
  ret { ptr, i64 } %44
}

; Function Attrs: nounwind uwtable
define { ptr, i64 } @stbtt__new_buf(ptr noundef %0, i64 noundef %1) #0 {
  %3 = alloca %struct.stbtt__buf, align 8
  %4 = alloca ptr, align 8
  %5 = alloca i64, align 8
  store ptr %0, ptr %4, align 8, !tbaa !3
  store i64 %1, ptr %5, align 8, !tbaa !17
  %6 = load ptr, ptr %4, align 8, !tbaa !3
  %7 = getelementptr inbounds nuw %struct.stbtt__buf, ptr %3, i32 0, i32 0
  store ptr %6, ptr %7, align 8, !tbaa !12
  %8 = load i64, ptr %5, align 8, !tbaa !17
  %9 = trunc i64 %8 to i32
  %10 = getelementptr inbounds nuw %struct.stbtt__buf, ptr %3, i32 0, i32 2
  store i32 %9, ptr %10, align 4, !tbaa !11
  %11 = getelementptr inbounds nuw %struct.stbtt__buf, ptr %3, i32 0, i32 1
  store i32 0, ptr %11, align 8, !tbaa !7
  %12 = load { ptr, i64 }, ptr %3, align 8
  ret { ptr, i64 } %12
}

; Function Attrs: nounwind uwtable
define { ptr, i64 } @stbtt__get_subrs(ptr %0, i64 %1, ptr %2, i64 %3) #0 {
  %5 = alloca %struct.stbtt__buf, align 8
  %6 = alloca %struct.stbtt__buf, align 8
  %7 = alloca %struct.stbtt__buf, align 8
  %8 = alloca i32, align 4
  %9 = alloca [2 x i32], align 4
  %10 = alloca %struct.stbtt__buf, align 8
  %11 = alloca i32, align 4
  %12 = alloca %struct.stbtt__buf, align 8
  %13 = getelementptr inbounds nuw { ptr, i64 }, ptr %6, i32 0, i32 0
  store ptr %0, ptr %13, align 8
  %14 = getelementptr inbounds nuw { ptr, i64 }, ptr %6, i32 0, i32 1
  store i64 %1, ptr %14, align 8
  %15 = getelementptr inbounds nuw { ptr, i64 }, ptr %7, i32 0, i32 0
  store ptr %2, ptr %15, align 8
  %16 = getelementptr inbounds nuw { ptr, i64 }, ptr %7, i32 0, i32 1
  store i64 %3, ptr %16, align 8
  call void @llvm.lifetime.start.p0(i64 4, ptr %8) #8
  store i32 0, ptr %8, align 4, !tbaa !14
  call void @llvm.lifetime.start.p0(i64 8, ptr %9) #8
  call void @llvm.memset.p0.i64(ptr align 4 %9, i8 0, i64 8, i1 false)
  call void @llvm.lifetime.start.p0(i64 16, ptr %10) #8
  %17 = getelementptr inbounds [2 x i32], ptr %9, i64 0, i64 0
  call void @stbtt__dict_get_ints(ptr noundef %7, i32 noundef 18, i32 noundef 2, ptr noundef %17)
  %18 = getelementptr inbounds [2 x i32], ptr %9, i64 0, i64 1
  %19 = load i32, ptr %18, align 4, !tbaa !14
  %20 = icmp ne i32 %19, 0
  br i1 %20, label %21, label %25

21:                                               ; preds = %4
  %22 = getelementptr inbounds [2 x i32], ptr %9, i64 0, i64 0
  %23 = load i32, ptr %22, align 4, !tbaa !14
  %24 = icmp ne i32 %23, 0
  br i1 %24, label %31, label %25

25:                                               ; preds = %21, %4
  %26 = call { ptr, i64 } @stbtt__new_buf(ptr noundef null, i64 noundef 0)
  %27 = getelementptr inbounds nuw { ptr, i64 }, ptr %5, i32 0, i32 0
  %28 = extractvalue { ptr, i64 } %26, 0
  store ptr %28, ptr %27, align 8
  %29 = getelementptr inbounds nuw { ptr, i64 }, ptr %5, i32 0, i32 1
  %30 = extractvalue { ptr, i64 } %26, 1
  store i64 %30, ptr %29, align 8
  store i32 1, ptr %11, align 4
  br label %59

31:                                               ; preds = %21
  call void @llvm.lifetime.start.p0(i64 16, ptr %12) #8
  %32 = getelementptr inbounds [2 x i32], ptr %9, i64 0, i64 1
  %33 = load i32, ptr %32, align 4, !tbaa !14
  %34 = getelementptr inbounds [2 x i32], ptr %9, i64 0, i64 0
  %35 = load i32, ptr %34, align 4, !tbaa !14
  %36 = call { ptr, i64 } @stbtt__buf_range(ptr noundef %6, i32 noundef %33, i32 noundef %35)
  %37 = getelementptr inbounds nuw { ptr, i64 }, ptr %12, i32 0, i32 0
  %38 = extractvalue { ptr, i64 } %36, 0
  store ptr %38, ptr %37, align 8
  %39 = getelementptr inbounds nuw { ptr, i64 }, ptr %12, i32 0, i32 1
  %40 = extractvalue { ptr, i64 } %36, 1
  store i64 %40, ptr %39, align 8
  call void @llvm.memcpy.p0.p0.i64(ptr align 8 %10, ptr align 8 %12, i64 16, i1 false), !tbaa.struct !27
  call void @llvm.lifetime.end.p0(i64 16, ptr %12) #8
  call void @stbtt__dict_get_ints(ptr noundef %10, i32 noundef 19, i32 noundef 1, ptr noundef %8)
  %41 = load i32, ptr %8, align 4, !tbaa !14
  %42 = icmp ne i32 %41, 0
  br i1 %42, label %49, label %43

43:                                               ; preds = %31
  %44 = call { ptr, i64 } @stbtt__new_buf(ptr noundef null, i64 noundef 0)
  %45 = getelementptr inbounds nuw { ptr, i64 }, ptr %5, i32 0, i32 0
  %46 = extractvalue { ptr, i64 } %44, 0
  store ptr %46, ptr %45, align 8
  %47 = getelementptr inbounds nuw { ptr, i64 }, ptr %5, i32 0, i32 1
  %48 = extractvalue { ptr, i64 } %44, 1
  store i64 %48, ptr %47, align 8
  store i32 1, ptr %11, align 4
  br label %59

49:                                               ; preds = %31
  %50 = getelementptr inbounds [2 x i32], ptr %9, i64 0, i64 1
  %51 = load i32, ptr %50, align 4, !tbaa !14
  %52 = load i32, ptr %8, align 4, !tbaa !14
  %53 = add i32 %51, %52
  call void @stbtt__buf_seek(ptr noundef %6, i32 noundef %53)
  %54 = call { ptr, i64 } @stbtt__cff_get_index(ptr noundef %6)
  %55 = getelementptr inbounds nuw { ptr, i64 }, ptr %5, i32 0, i32 0
  %56 = extractvalue { ptr, i64 } %54, 0
  store ptr %56, ptr %55, align 8
  %57 = getelementptr inbounds nuw { ptr, i64 }, ptr %5, i32 0, i32 1
  %58 = extractvalue { ptr, i64 } %54, 1
  store i64 %58, ptr %57, align 8
  store i32 1, ptr %11, align 4
  br label %59

59:                                               ; preds = %49, %43, %25
  call void @llvm.lifetime.end.p0(i64 16, ptr %10) #8
  call void @llvm.lifetime.end.p0(i64 8, ptr %9) #8
  call void @llvm.lifetime.end.p0(i64 4, ptr %8) #8
  %60 = load { ptr, i64 }, ptr %5, align 8
  ret { ptr, i64 } %60
}